Certificate:
    Data:
        Version: 3 (0x2)
        Serial Number:
            d0:1d:2d:a1:6d:1d:bb:e0:53:be:26:31:95:68:6d:d2
    Signature Algorithm: sha256WithRSAEncryption
        Issuer: CN=rasvpnCA
        Validity
            Not Before: Jun 29 12:37:25 2021 GMT
            Not After : Oct  2 12:37:25 2023 GMT
        Subject: CN=rasvpnSRV
        Subject Public Key Info:
            Public Key Algorithm: rsaEncryption
                Public-Key: (2048 bit)
                Modulus:
                    00:ae:c1:36:de:f4:4d:17:ed:c1:6f:51:ca:2b:3e:
                    29:a3:2f:a4:64:09:33:65:ed:b0:b2:83:fb:93:04:
                    72:39:47:b4:68:ed:d8:32:89:8d:0e:54:d0:3b:ec:
                    e8:fa:ee:95:7a:4c:35:86:78:ec:5c:25:d3:14:f7:
                    91:ab:ba:c5:67:dc:dc:b3:ab:11:ef:43:78:57:26:
                    a7:a6:8c:6a:c8:96:39:54:39:f4:81:d8:87:a1:bf:
                    88:ef:2a:f4:8b:55:b0:fc:88:92:10:6b:10:06:32:
                    6d:80:d6:2b:42:6b:21:98:2b:6f:db:af:65:69:73:
                    d9:82:6d:28:28:ab:81:07:e8:0d:43:1a:9d:df:91:
                    9f:22:26:28:50:51:aa:af:91:a7:87:df:73:f8:32:
                    fb:b7:98:1e:42:28:4b:5c:31:27:8a:73:95:02:34:
                    2b:74:7b:36:ee:68:8e:aa:c5:8f:9c:ea:19:da:c1:
                    b0:06:ec:9c:48:6e:52:0d:13:d4:bc:2e:8d:e2:91:
                    50:e1:a6:3c:4e:b7:4d:55:21:5f:bc:f3:5a:08:57:
                    93:be:47:6f:90:a6:3f:70:8e:a6:cd:06:3a:ba:c0:
                    b7:7a:e7:97:8e:33:f3:22:8b:cf:7e:66:78:bb:94:
                    91:fd:ac:02:36:52:9a:68:46:56:9e:a7:e0:d1:5c:
                    d8:6b
                Exponent: 65537 (0x10001)
        X509v3 extensions:
            X509v3 Basic Constraints:
                CA:FALSE
            X509v3 Subject Key Identifier:
                1F:06:8E:C2:53:4A:33:64:00:BD:AF:68:65:CB:50:3B:14:43:80:43
            X509v3 Authority Key Identifier:
                keyid:0C:2B:9D:69:CF:58:A5:06:64:69:20:37:FA:6B:E1:94:3E:D0:89:B1
                DirName:/CN=rasvpnCA
                serial:89:3E:18:9D:4F:E3:40:F7

            X509v3 Extended Key Usage:
                TLS Web Server Authentication
            X509v3 Key Usage:
                Digital Signature, Key Encipherment
            X509v3 Subject Alternative Name:
                DNS:rasvpnSRV
    Signature Algorithm: sha256WithRSAEncryption
         98:20:35:0e:17:1e:ed:cd:d4:f6:c4:c6:9d:5f:e5:c8:a8:0e:
         04:d6:b2:b2:15:a6:3c:ed:32:1c:2e:f6:d0:30:22:07:70:f2:
         f2:4a:2a:e0:75:30:cd:d7:9f:fc:a4:02:de:47:be:92:b0:45:
         7e:ef:65:49:ad:95:ca:06:27:88:b9:37:fc:57:ff:98:31:f1:
         01:c8:54:8b:7e:0b:3e:fa:05:fb:78:eb:c8:72:98:2d:0e:bb:
         18:20:f2:64:54:55:af:f7:20:c2:d7:5e:d9:9f:1b:83:32:34:
         4a:25:6a:e1:8f:07:70:84:f3:df:23:8d:9f:26:0e:d1:98:6e:
         49:1e:b6:c8:84:5c:93:27:87:79:2c:08:85:49:42:1f:0b:48:
         2b:e0:9c:ba:a7:8e:03:ac:2c:57:ec:07:be:e2:c2:da:1d:fe:
         74:d3:4f:44:c2:20:93:0d:32:cd:c4:af:c1:19:0d:e5:d7:d6:
         15:19:43:ab:96:29:ca:24:44:18:93:72:c0:b9:1c:55:1d:ad:
         da:ca:b9:dd:11:8a:74:87:23:dc:13:f4:44:9f:0f:d5:6f:45:
         af:35:5a:83:f2:d6:70:64:2c:6f:a7:23:42:b4:4b:95:5a:a8:
         5b:29:cc:f8:7f:64:9a:89:5a:f8:2e:7a:e9:c2:1b:c4:25:e8:
         6b:b1:74:67
-----BEGIN CERTIFICATE-----
MIIDXTCCAkWgAwIBAgIRANAdLaFtHbvgU74mMZVobdIwDQYJKoZIhvcNAQELBQAw
EzERMA8GA1UEAwwIcmFzdnBuQ0EwHhcNMjEwNjI5MTIzNzI1WhcNMjMxMDAyMTIz
NzI1WjAUMRIwEAYDVQQDDAlyYXN2cG5TUlYwggEiMA0GCSqGSIb3DQEBAQUAA4IB
DwAwggEKAoIBAQCuwTbe9E0X7cFvUcorPimjL6RkCTNl7bCyg/uTBHI5R7Ro7dgy
iY0OVNA77Oj67pV6TDWGeOxcJdMU95GrusVn3NyzqxHvQ3hXJqemjGrIljlUOfSB
2Iehv4jvKvSLVbD8iJIQaxAGMm2A1itCayGYK2/br2Vpc9mCbSgoq4EH6A1DGp3f
kZ8iJihQUaqvkaeH33P4Mvu3mB5CKEtcMSeKc5UCNCt0ezbuaI6qxY+c6hnawbAG
7JxIblINE9S8Lo3ikVDhpjxOt01VIV+881oIV5O+R2+Qpj9wjqbNBjq6wLd655eO
M/Mii89+Zni7lJH9rAI2UppoRlaep+DRXNhrAgMBAAGjgaowgacwCQYDVR0TBAIw
ADAdBgNVHQ4EFgQUHwaOwlNKM2QAva9oZctQOxRDgEMwQwYDVR0jBDwwOoAUDCud
ac9YpQZkaSA3+mvhlD7QibGhF6QVMBMxETAPBgNVBAMMCHJhc3ZwbkNBggkAiT4Y
nU/jQPcwEwYDVR0lBAwwCgYIKwYBBQUHAwEwCwYDVR0PBAQDAgWgMBQGA1UdEQQN
MAuCCXJhc3ZwblNSVjANBgkqhkiG9w0BAQsFAAOCAQEAmCA1Dhce7c3U9sTGnV/l
yKgOBNayshWmPO0yHC720DAiB3Dy8koq4HUwzdef/KQC3ke+krBFfu9lSa2VygYn
iLk3/Ff/mDHxAchUi34LPvoF+3jryHKYLQ67GCDyZFRVr/cgwtde2Z8bgzI0SiVq
4Y8HcITz3yONnyYO0ZhuSR62yIRckyeHeSwIhUlCHwtIK+CcuqeOA6wsV+wHvuLC
2h3+dNNPRMIgkw0yzcSvwRkN5dfWFRlDq5YpyiREGJNywLkcVR2t2sq53RGKdIcj
3BP0RJ8P1W9FrzVag/LWcGQsb6cjQrRLlVqoWynM+H9kmola+C566cIbxCXoa7F0
Zw==
-----END CERTIFICATE-----
